; Function Attrs: mustprogress uwtable
define noundef zeroext i1 @_ZN4pugi8xml_text3setEx(ptr nocapture noundef nonnull readonly align 8 dereferenceable(8) %this, i64 noundef %rhs) local_unnamed_addr #6 align 2 {
entry:
  %buf.i = alloca [64 x i8], align 16
  %ref.tmp2.i = alloca %"class.pugi::xml_node", align 8
  call void @llvm.lifetime.start.p0(i64 8, ptr nonnull %ref.tmp2.i)
  %0 = load ptr, ptr %this, align 8
  %tobool.not.i.i = icmp eq ptr %0, null
  br i1 %tobool.not.i.i, label %_ZN4pugi8xml_text9_data_newEv.exit, label %lor.lhs.false.i.i

lor.lhs.false.i.i:                                ; preds = %entry
  %.val.i.i = load i64, ptr %0, align 8
  %1 = trunc i64 %.val.i.i to i32
  %conv.i.i.i = and i32 %1, 15
  %2 = add nsw i32 %conv.i.i.i, -3
  %3 = icmp ult i32 %2, 2
  br i1 %3, label %_ZN4pugi8xml_text9_data_newEv.exit.thread, label %if.end.i.i

if.end.i.i:                                       ; preds = %lor.lhs.false.i.i
  %conv4.i.i = and i64 %.val.i.i, 15
  %cmp.i.i = icmp eq i64 %conv4.i.i, 2
  br i1 %cmp.i.i, label %land.lhs.true.i.i, label %if.end9.i.i

land.lhs.true.i.i:                                ; preds = %if.end.i.i
  %value.i.i = getelementptr inbounds i8, ptr %0, i64 16
  %4 = load ptr, ptr %value.i.i, align 8
  %tobool6.not.i.i = icmp eq ptr %4, null
  br i1 %tobool6.not.i.i, label %if.end9.i.i, label %_ZN4pugi8xml_text9_data_newEv.exit.thread

if.end9.i.i:                                      ; preds = %land.lhs.true.i.i, %if.end.i.i
  %first_child.i.i = getelementptr inbounds i8, ptr %0, i64 32
  %node.06.i.i = load ptr, ptr %first_child.i.i, align 8
  %tobool11.not7.i.i = icmp eq ptr %node.06.i.i, null
  br i1 %tobool11.not7.i.i, label %_ZN4pugi8xml_text9_data_newEv.exit, label %for.body.i.i

for.body.i.i:                                     ; preds = %if.end9.i.i, %for.inc.i.i
  %node.08.i.i = phi ptr [ %node.0.i.i, %for.inc.i.i ], [ %node.06.i.i, %if.end9.i.i ]
  %node.0.val.i.i = load i64, ptr %node.08.i.i, align 8
  %5 = trunc i64 %node.0.val.i.i to i32
  %conv.i5.i.i = and i32 %5, 15
  %6 = add nsw i32 %conv.i5.i.i, -3
  %7 = icmp ult i32 %6, 2
  br i1 %7, label %_ZN4pugi8xml_text9_data_newEv.exit.thread, label %for.inc.i.i

for.inc.i.i:                                      ; preds = %for.body.i.i
  %next_sibling.i.i = getelementptr inbounds i8, ptr %node.08.i.i, i64 48
  %node.0.i.i = load ptr, ptr %next_sibling.i.i, align 8
  %tobool11.not.i.i = icmp eq ptr %node.0.i.i, null
  br i1 %tobool11.not.i.i, label %_ZN4pugi8xml_text9_data_newEv.exit, label %for.body.i.i, !llvm.loop !109

_ZN4pugi8xml_text9_data_newEv.exit.thread:        ; preds = %for.body.i.i, %land.lhs.true.i.i, %lor.lhs.false.i.i
  %retval.0.i.ph = phi ptr [ %0, %lor.lhs.false.i.i ], [ %0, %land.lhs.true.i.i ], [ %node.08.i.i, %for.body.i.i ]
  call void @llvm.lifetime.end.p0(i64 8, ptr nonnull %ref.tmp2.i)
  br label %cond.true

_ZN4pugi8xml_text9_data_newEv.exit:               ; preds = %for.inc.i.i, %entry, %if.end9.i.i
  call void @_ZN4pugi8xml_nodeC1EPNS_15xml_node_structE(ptr noundef nonnull align 8 dereferenceable(8) %ref.tmp2.i, ptr noundef %0)
  %call3.i = call ptr @_ZN4pugi8xml_node12append_childENS_13xml_node_typeE(ptr noundef nonnull align 8 dereferenceable(8) %ref.tmp2.i, i32 noundef 3)
  call void @llvm.lifetime.end.p0(i64 8, ptr nonnull %ref.tmp2.i)
  %tobool.not = icmp eq ptr %call3.i, null
  br i1 %tobool.not, label %cond.end, label %cond.true

cond.true:                                        ; preds = %_ZN4pugi8xml_text9_data_newEv.exit.thread, %_ZN4pugi8xml_text9_data_newEv.exit
  %retval.0.i6 = phi ptr [ %retval.0.i.ph, %_ZN4pugi8xml_text9_data_newEv.exit.thread ], [ %call3.i, %_ZN4pugi8xml_text9_data_newEv.exit ]
  %value = getelementptr inbounds i8, ptr %retval.0.i6, i64 16
  call void @llvm.lifetime.start.p0(i64 64, ptr nonnull %buf.i)
  %add.ptr.i.i = getelementptr inbounds i8, ptr %buf.i, i64 63
  %cond.i.i = call i64 @llvm.abs.i64(i64 %rhs, i1 false)
  br label %do.body.i.i

do.body.i.i:                                      ; preds = %do.body.i.i, %cond.true
  %result.0.i.i = phi ptr [ %add.ptr.i.i, %cond.true ], [ %incdec.ptr.i.i, %do.body.i.i ]
  %rest.0.i.i = phi i64 [ %cond.i.i, %cond.true ], [ %div.i.i, %do.body.i.i ]
  %rem.i.i = urem i64 %rest.0.i.i, 10
  %8 = trunc i64 %rem.i.i to i8
  %conv.i.i = or disjoint i8 %8, 48
  %incdec.ptr.i.i = getelementptr inbounds i8, ptr %result.0.i.i, i64 -1
  store i8 %conv.i.i, ptr %result.0.i.i, align 1
  %div.i.i = udiv i64 %rest.0.i.i, 10
  %tobool1.not.i.i = icmp ult i64 %rest.0.i.i, 10
  br i1 %tobool1.not.i.i, label %_ZN4pugi4impl12_GLOBAL__N_117set_value_integerIyPcmEEbRT0_RT1_mT_b.exit, label %do.body.i.i, !llvm.loop !7

_ZN4pugi4impl12_GLOBAL__N_117set_value_integerIyPcmEEbRT0_RT1_mT_b.exit: ; preds = %do.body.i.i
  %cmp = icmp sgt i64 %rhs, -1
  %add.ptr.i = getelementptr inbounds i8, ptr %buf.i, i64 64
  store i8 45, ptr %incdec.ptr.i.i, align 1
  %idx.ext.i.i = zext i1 %cmp to i64
  %add.ptr4.i.i = getelementptr inbounds i8, ptr %incdec.ptr.i.i, i64 %idx.ext.i.i
  %sub.ptr.lhs.cast.i = ptrtoint ptr %add.ptr.i to i64
  %sub.ptr.rhs.cast.i = ptrtoint ptr %add.ptr4.i.i to i64
  %sub.ptr.sub.i = sub i64 %sub.ptr.lhs.cast.i, %sub.ptr.rhs.cast.i
  %call2.i = call fastcc noundef zeroext i1 @_ZN4pugi4impl12_GLOBAL__N_113strcpy_insituIPcmEEbRT_RT0_mPKcm(ptr noundef nonnull align 8 dereferenceable(8) %value, ptr noundef nonnull align 8 dereferenceable(8) %retval.0.i6, i64 noundef 16, ptr noundef nonnull %add.ptr4.i.i, i64 noundef %sub.ptr.sub.i)
  call void @llvm.lifetime.end.p0(i64 64, ptr nonnull %buf.i)
  br label %cond.end

cond.end:                                         ; preds = %_ZN4pugi8xml_text9_data_newEv.exit, %_ZN4pugi4impl12_GLOBAL__N_117set_value_integerIyPcmEEbRT0_RT1_mT_b.exit
  %cond = phi i1 [ %call2.i, %_ZN4pugi4impl12_GLOBAL__N_117set_value_integerIyPcmEEbRT0_RT1_mT_b.exit ], [ false, %_ZN4pugi8xml_text9_data_newEv.exit ]
  ret i1 %cond
}